target datalayout = "e-m:e-p270:32:32-p271:32:32-p272:64:64-i64:64-i128:128-f80:128-n8:16:32:64-S128"
target triple = "x86_64-pc-linux-gnu"

%struct.pm_constant_id_list_t = type { i64, i64, ptr }

; Function Attrs: nounwind sspstrong uwtable
define hidden zeroext i1 @pm_constant_id_list_append(ptr noundef %0, i32 noundef %1) #0 {
  %3 = alloca i1, align 1
  %4 = alloca ptr, align 8
  %5 = alloca i32, align 4
  store ptr %0, ptr %4, align 8, !tbaa !7
  store i32 %1, ptr %5, align 4, !tbaa !18
  %6 = load ptr, ptr %4, align 8, !tbaa !7
  %7 = getelementptr inbounds nuw %struct.pm_constant_id_list_t, ptr %6, i32 0, i32 0
  %8 = load i64, ptr %7, align 8, !tbaa !15
  %9 = load ptr, ptr %4, align 8, !tbaa !7
  %10 = getelementptr inbounds nuw %struct.pm_constant_id_list_t, ptr %9, i32 0, i32 1
  %11 = load i64, ptr %10, align 8, !tbaa !16
  %12 = icmp uge i64 %8, %11
  br i1 %12, label %13, label %44

13:                                               ; preds = %2
  %14 = load ptr, ptr %4, align 8, !tbaa !7
  %15 = getelementptr inbounds nuw %struct.pm_constant_id_list_t, ptr %14, i32 0, i32 1
  %16 = load i64, ptr %15, align 8, !tbaa !16
  %17 = icmp eq i64 %16, 0
  br i1 %17, label %18, label %19

18:                                               ; preds = %13
  br label %24

19:                                               ; preds = %13
  %20 = load ptr, ptr %4, align 8, !tbaa !7
  %21 = getelementptr inbounds nuw %struct.pm_constant_id_list_t, ptr %20, i32 0, i32 1
  %22 = load i64, ptr %21, align 8, !tbaa !16
  %23 = mul i64 %22, 2
  br label %24

24:                                               ; preds = %19, %18
  %25 = phi i64 [ 8, %18 ], [ %23, %19 ]
  %26 = load ptr, ptr %4, align 8, !tbaa !7
  %27 = getelementptr inbounds nuw %struct.pm_constant_id_list_t, ptr %26, i32 0, i32 1
  store i64 %25, ptr %27, align 8, !tbaa !16
  %28 = load ptr, ptr %4, align 8, !tbaa !7
  %29 = getelementptr inbounds nuw %struct.pm_constant_id_list_t, ptr %28, i32 0, i32 2
  %30 = load ptr, ptr %29, align 8, !tbaa !11
  %31 = load ptr, ptr %4, align 8, !tbaa !7
  %32 = getelementptr inbounds nuw %struct.pm_constant_id_list_t, ptr %31, i32 0, i32 1
  %33 = load i64, ptr %32, align 8, !tbaa !16
  %34 = mul i64 4, %33
  %35 = call ptr @realloc(ptr noundef %30, i64 noundef %34) #13
  %36 = load ptr, ptr %4, align 8, !tbaa !7
  %37 = getelementptr inbounds nuw %struct.pm_constant_id_list_t, ptr %36, i32 0, i32 2
  store ptr %35, ptr %37, align 8, !tbaa !11
  %38 = load ptr, ptr %4, align 8, !tbaa !7
  %39 = getelementptr inbounds nuw %struct.pm_constant_id_list_t, ptr %38, i32 0, i32 2
  %40 = load ptr, ptr %39, align 8, !tbaa !11
  %41 = icmp eq ptr %40, null
  br i1 %41, label %42, label %43

42:                                               ; preds = %24
  store i1 false, ptr %3, align 1
  br label %54

43:                                               ; preds = %24
  br label %44

44:                                               ; preds = %43, %2
  %45 = load i32, ptr %5, align 4, !tbaa !18
  %46 = load ptr, ptr %4, align 8, !tbaa !7
  %47 = getelementptr inbounds nuw %struct.pm_constant_id_list_t, ptr %46, i32 0, i32 2
  %48 = load ptr, ptr %47, align 8, !tbaa !11
  %49 = load ptr, ptr %4, align 8, !tbaa !7
  %50 = getelementptr inbounds nuw %struct.pm_constant_id_list_t, ptr %49, i32 0, i32 0
  %51 = load i64, ptr %50, align 8, !tbaa !15
  %52 = add i64 %51, 1
  store i64 %52, ptr %50, align 8, !tbaa !15
  %53 = getelementptr i32, ptr %48, i64 %51
  store i32 %45, ptr %53, align 4, !tbaa !18
  store i1 true, ptr %3, align 1
  br label %54

54:                                               ; preds = %44, %42
  %55 = load i1, ptr %3, align 1
  ret i1 %55
}