; Function Attrs: mustprogress nounwind sspstrong willreturn uwtable
define hidden noundef zeroext i1 @pm_constant_id_list_append(ptr noundef captures(none) %0, i32 noundef %1) local_unnamed_addr #4 {
  %3 = load i64, ptr %0, align 8, !tbaa !14
  %4 = getelementptr inbounds nuw i8, ptr %0, i64 8
  %5 = load i64, ptr %4, align 8, !tbaa !15
  %.not = icmp ult i64 %3, %5
  br i1 %.not, label %._crit_edge, label %6

._crit_edge:                                      ; preds = %2
  %.phi.trans.insert = getelementptr inbounds nuw i8, ptr %0, i64 16
  %.pre = load ptr, ptr %.phi.trans.insert, align 8, !tbaa !7
  br label %14

6:                                                ; preds = %2
  %7 = icmp eq i64 %5, 0
  %8 = shl i64 %5, 1
  %spec.select = select i1 %7, i64 8, i64 %8
  store i64 %spec.select, ptr %4, align 8, !tbaa !15
  %9 = getelementptr inbounds nuw i8, ptr %0, i64 16
  %10 = load ptr, ptr %9, align 8, !tbaa !7
  %11 = shl i64 %spec.select, 2
  %12 = tail call ptr @realloc(ptr noundef %10, i64 noundef %11) #19
  store ptr %12, ptr %9, align 8, !tbaa !7
  %13 = icmp eq ptr %12, null
  br i1 %13, label %19, label %._crit_edge13

._crit_edge13:                                    ; preds = %6
  %.pre14 = load i64, ptr %0, align 8, !tbaa !14
  br label %14

14:                                               ; preds = %._crit_edge13, %._crit_edge
  %15 = phi i64 [ %3, %._crit_edge ], [ %.pre14, %._crit_edge13 ]
  %16 = phi ptr [ %.pre, %._crit_edge ], [ %12, %._crit_edge13 ]
  %17 = add i64 %15, 1
  store i64 %17, ptr %0, align 8, !tbaa !14
  %18 = getelementptr i32, ptr %16, i64 %15
  store i32 %1, ptr %18, align 4, !tbaa !16
  br label %19

19:                                               ; preds = %6, %14
  %.0 = phi i1 [ true, %14 ], [ false, %6 ]
  ret i1 %.0
}